	.file	"selection_sort.c"
	.text
	.section	.rodata
.LC0:
	.string	"%d "
	.text
	.globl	main
	.type	main, @function
main:
.LFB0:
	.cfi_startproc
	pushq	%rbp
	.cfi_def_cfa_offset 16
	.cfi_offset 6, -16
	movq	%rsp, %rbp
	.cfi_def_cfa_register 6
	subq	$48, %rsp
	movq	%fs:40, %rax
	movq	%rax, -8(%rbp)
	xorl	%eax, %eax
	movl	$50, -32(%rbp)
	movl	$1, -28(%rbp)
	movl	$35, -24(%rbp)
	movl	$33, -20(%rbp)
	movl	$12, -16(%rbp)
	movl	$222, -12(%rbp)
	movl	$6, -36(%rbp)
	movl	-36(%rbp), %edx
	leaq	-32(%rbp), %rax
	movl	%edx, %esi
	movq	%rax, %rdi
	call	selectionSort
	movl	$0, -40(%rbp)
	jmp	.L2
.L3:
	movl	-40(%rbp), %eax
	cltq
	movl	-32(%rbp,%rax,4), %eax
	movl	%eax, %esi
	leaq	.LC0(%rip), %rdi
	movl	$0, %eax
	call	printf@PLT
	addl	$1, -40(%rbp)
.L2:
	movl	-40(%rbp), %eax
	cmpl	-36(%rbp), %eax
	jl	.L3
	movl	$0, %eax
	movq	-8(%rbp), %rcx
	xorq	%fs:40, %rcx
	je	.L5
	call	__stack_chk_fail@PLT
.L5:
	leave
	.cfi_def_cfa 7, 8
	ret
	.cfi_endproc
.LFE0:
	.size	main, .-main
	.globl	selectionSort
	.type	selectionSort, @function
selectionSort:
.LFB1:
	.cfi_startproc
	pushq	%rbp
	.cfi_def_cfa_offset 16
	.cfi_offset 6, -16
	movq	%rsp, %rbp
	.cfi_def_cfa_register 6
	subq	$32, %rsp
	movq	%rdi, -24(%rbp)
	movl	%esi, -28(%rbp)
	movl	$0, -12(%rbp)
	jmp	.L7
.L11:
	movl	-12(%rbp), %eax
	movl	%eax, -4(%rbp)
	movl	-12(%rbp), %eax
	addl	$1, %eax
	movl	%eax, -8(%rbp)
	jmp	.L8
.L10:
	movl	-8(%rbp), %eax
	cltq
	leaq	0(,%rax,4), %rdx
	movq	-24(%rbp), %rax
	addq	%rdx, %rax
	movl	(%rax), %edx
	movl	-4(%rbp), %eax
	cltq
	leaq	0(,%rax,4), %rcx
	movq	-24(%rbp), %rax
	addq	%rcx, %rax
	movl	(%rax), %eax
	cmpl	%eax, %edx
	jge	.L9
	movl	-8(%rbp), %eax
	movl	%eax, -4(%rbp)
.L9:
	addl	$1, -8(%rbp)
.L8:
	movl	-8(%rbp), %eax
	cmpl	-28(%rbp), %eax
	jl	.L10
	movl	-4(%rbp), %edx
	movl	-12(%rbp), %ecx
	movq	-24(%rbp), %rax
	movl	%ecx, %esi
	movq	%rax, %rdi
	call	swap
	addl	$1, -12(%rbp)
.L7:
	movl	-28(%rbp), %eax
	subl	$1, %eax
	cmpl	%eax, -12(%rbp)
	jl	.L11
	nop
	leave
	.cfi_def_cfa 7, 8
	ret
	.cfi_endproc
.LFE1:
	.size	selectionSort, .-selectionSort
	.globl	swap
	.type	swap, @function
swap:
.LFB2:
	.cfi_startproc
	pushq	%rbp
	.cfi_def_cfa_offset 16
	.cfi_offset 6, -16
	movq	%rsp, %rbp
	.cfi_def_cfa_register 6
	movq	%rdi, -24(%rbp)
	movl	%esi, -28(%rbp)
	movl	%edx, -32(%rbp)
	movl	-28(%rbp), %eax
	cltq
	leaq	0(,%rax,4), %rdx
	movq	-24(%rbp), %rax
	addq	%rdx, %rax
	movl	(%rax), %eax
	movl	%eax, -4(%rbp)
	movl	-32(%rbp), %eax
	cltq
	leaq	0(,%rax,4), %rdx
	movq	-24(%rbp), %rax
	addq	%rdx, %rax
	movl	-28(%rbp), %edx
	movslq	%edx, %rdx
	leaq	0(,%rdx,4), %rcx
	movq	-24(%rbp), %rdx
	addq	%rcx, %rdx
	movl	(%rax), %eax
	movl	%eax, (%rdx)
	movl	-32(%rbp), %eax
	cltq
	leaq	0(,%rax,4), %rdx
	movq	-24(%rbp), %rax
	addq	%rax, %rdx
	movl	-4(%rbp), %eax
	movl	%eax, (%rdx)
	nop
	popq	%rbp
	.cfi_def_cfa 7, 8
	ret
	.cfi_endproc
.LFE2:
	.size	swap, .-swap
	.ident	"GCC: (Ubuntu 7.5.0-3ubuntu1~18.04) 7.5.0"
	.section	.note.GNU-stack,"",@progbits
